target datalayout = "e-m:e-p270:32:32-p271:32:32-p272:64:64-i64:64-i128:128-f80:128-n8:16:32:64-S128"
target triple = "x86_64-pc-linux-gnu"

%struct._address = type { i32, i32, ptr, ptr }
%struct._packet_info = type { ptr, ptr, i32, i32, %struct.nstime_t, %struct.nstime_t, %struct.nstime_t, i8, ptr, ptr, ptr, ptr, %struct._address, %struct._address, %struct._address, %struct._address, %struct._address, %struct._address, i32, ptr, i8, [3 x i8], %struct.anon, i32, i32, i32, i32, ptr, i8, ptr, ptr, i16, i16, i32, i32, i16, i32, i32, ptr, ptr, ptr, i8, i8, i16, i16, i16, i32, i16, i16, ptr, ptr, ptr, ptr, ptr, i32, i32 }
%struct.nstime_t = type { i64, i32 }
%struct.anon = type { i8, [3 x i8] }

@hf_msg_conn = internal global i32 0, align 4
@hf_msg_sigchar = internal global i32 0, align 4
@ett_ipxmsg = internal global i32 0, align 4
@.str.126 = private unnamed_addr constant [8 x i8] c"IPX MSG\00", align 1
@proto_ipxmsg = internal global i32 0, align 4
@.str.418 = private unnamed_addr constant [18 x i8] c"%s, Connection %d\00", align 1
@.str.419 = private unnamed_addr constant [28 x i8] c"Unknown Signature Character\00", align 1

; Function Attrs: null_pointer_is_valid sspstrong uwtable
define internal i32 @dissect_ipxmsg(ptr noundef %0, ptr noundef %1, ptr noundef %2, ptr noundef %3) #1 {
  %5 = alloca ptr, align 8
  %6 = alloca ptr, align 8
  %7 = alloca ptr, align 8
  %8 = alloca ptr, align 8
  %9 = alloca ptr, align 8
  %10 = alloca ptr, align 8
  %11 = alloca i8, align 1
  %12 = alloca i8, align 1
  store ptr %0, ptr %5, align 8
  store ptr %1, ptr %6, align 8
  store ptr %2, ptr %7, align 8
  store ptr %3, ptr %8, align 8
  call void @llvm.lifetime.start.p0(i64 8, ptr %9) #7
  call void @llvm.lifetime.start.p0(i64 8, ptr %10) #7
  call void @llvm.lifetime.start.p0(i64 1, ptr %11) #7
  call void @llvm.lifetime.start.p0(i64 1, ptr %12) #7
  %13 = load ptr, ptr %6, align 8
  %14 = getelementptr inbounds nuw %struct._packet_info, ptr %13, i32 0, i32 1
  %15 = load ptr, ptr %14, align 8
  call void @col_set_str(ptr noundef %15, i32 noundef 35, ptr noundef @.str.126)
  %16 = load ptr, ptr %6, align 8
  %17 = getelementptr inbounds nuw %struct._packet_info, ptr %16, i32 0, i32 1
  %18 = load ptr, ptr %17, align 8
  call void @col_clear(ptr noundef %18, i32 noundef 25)
  %19 = load ptr, ptr %5, align 8
  %20 = call zeroext i8 @tvb_get_uint8(ptr noundef %19, i32 noundef 0)
  store i8 %20, ptr %11, align 1
  %21 = load ptr, ptr %5, align 8
  %22 = call zeroext i8 @tvb_get_uint8(ptr noundef %21, i32 noundef 1)
  store i8 %22, ptr %12, align 1
  %23 = load ptr, ptr %6, align 8
  %24 = getelementptr inbounds nuw %struct._packet_info, ptr %23, i32 0, i32 1
  %25 = load ptr, ptr %24, align 8
  %26 = load i8, ptr %12, align 1
  %27 = zext i8 %26 to i32
  %28 = call ptr @val_to_str_const(i32 noundef %27, ptr noundef @ipxmsg_sigchar_vals, ptr noundef @.str.419)
  %29 = load i8, ptr %11, align 1
  %30 = zext i8 %29 to i32
  call void (ptr, i32, ptr, ...) @col_add_fstr(ptr noundef %25, i32 noundef 25, ptr noundef @.str.418, ptr noundef %28, i32 noundef %30)
  %31 = load ptr, ptr %7, align 8
  %32 = icmp ne ptr %31, null
  br i1 %32, label %33, label %53

33:                                               ; preds = %4
  %34 = load ptr, ptr %7, align 8
  %35 = load i32, ptr @proto_ipxmsg, align 4
  %36 = load ptr, ptr %5, align 8
  %37 = call ptr @proto_tree_add_item(ptr noundef %34, i32 noundef %35, ptr noundef %36, i32 noundef 0, i32 noundef -1, i32 noundef 0)
  store ptr %37, ptr %10, align 8
  %38 = load ptr, ptr %10, align 8
  %39 = load i32, ptr @ett_ipxmsg, align 4
  %40 = call ptr @proto_item_add_subtree(ptr noundef %38, i32 noundef %39)
  store ptr %40, ptr %9, align 8
  %41 = load ptr, ptr %9, align 8
  %42 = load i32, ptr @hf_msg_conn, align 4
  %43 = load ptr, ptr %5, align 8
  %44 = load i8, ptr %11, align 1
  %45 = zext i8 %44 to i32
  %46 = call ptr @proto_tree_add_uint(ptr noundef %41, i32 noundef %42, ptr noundef %43, i32 noundef 0, i32 noundef 1, i32 noundef %45)
  %47 = load ptr, ptr %9, align 8
  %48 = load i32, ptr @hf_msg_sigchar, align 4
  %49 = load ptr, ptr %5, align 8
  %50 = load i8, ptr %12, align 1
  %51 = zext i8 %50 to i32
  %52 = call ptr @proto_tree_add_uint(ptr noundef %47, i32 noundef %48, ptr noundef %49, i32 noundef 1, i32 noundef 1, i32 noundef %51)
  br label %53

53:                                               ; preds = %33, %4
  %54 = load ptr, ptr %5, align 8
  %55 = call i32 @tvb_captured_length(ptr noundef %54)
  call void @llvm.lifetime.end.p0(i64 1, ptr %12) #7
  call void @llvm.lifetime.end.p0(i64 1, ptr %11) #7
  call void @llvm.lifetime.end.p0(i64 8, ptr %10) #7
  call void @llvm.lifetime.end.p0(i64 8, ptr %9) #7
  ret i32 %55
}