; Function Attrs: null_pointer_is_valid sspstrong uwtable
define internal i32 @dissect_ipxmsg(ptr noundef %0, ptr noundef readonly captures(none) %1, ptr noundef %2, ptr readnone captures(none) %3) #1 {
  %5 = getelementptr inbounds nuw i8, ptr %1, i64 8
  %6 = load ptr, ptr %5, align 8
  tail call void @col_set_str(ptr noundef %6, i32 noundef 35, ptr noundef nonnull @.str.126)
  %7 = load ptr, ptr %5, align 8
  tail call void @col_clear(ptr noundef %7, i32 noundef 25)
  %8 = tail call zeroext i8 @tvb_get_uint8(ptr noundef %0, i32 noundef 0)
  %9 = tail call zeroext i8 @tvb_get_uint8(ptr noundef %0, i32 noundef 1)
  %10 = load ptr, ptr %5, align 8
  %11 = zext i8 %9 to i32
  %12 = tail call ptr @val_to_str_const(i32 noundef %11, ptr noundef nonnull @ipxmsg_sigchar_vals, ptr noundef nonnull @.str.419)
  %13 = zext i8 %8 to i32
  tail call void (ptr, i32, ptr, ...) @col_add_fstr(ptr noundef %10, i32 noundef 25, ptr noundef nonnull @.str.418, ptr noundef %12, i32 noundef %13)
  %.not = icmp eq ptr %2, null
  br i1 %.not, label %23, label %14

14:                                               ; preds = %4
  %15 = load i32, ptr @proto_ipxmsg, align 4
  %16 = tail call ptr @proto_tree_add_item(ptr noundef nonnull %2, i32 noundef %15, ptr noundef %0, i32 noundef 0, i32 noundef -1, i32 noundef 0)
  %17 = load i32, ptr @ett_ipxmsg, align 4
  %18 = tail call ptr @proto_item_add_subtree(ptr noundef %16, i32 noundef %17)
  %19 = load i32, ptr @hf_msg_conn, align 4
  %20 = tail call ptr @proto_tree_add_uint(ptr noundef %18, i32 noundef %19, ptr noundef %0, i32 noundef 0, i32 noundef 1, i32 noundef %13)
  %21 = load i32, ptr @hf_msg_sigchar, align 4
  %22 = tail call ptr @proto_tree_add_uint(ptr noundef %18, i32 noundef %21, ptr noundef %0, i32 noundef 1, i32 noundef 1, i32 noundef %11)
  br label %23

23:                                               ; preds = %14, %4
  %24 = tail call i32 @tvb_captured_length(ptr noundef %0)
  ret i32 %24
}